target datalayout = "e-m:e-p270:32:32-p271:32:32-p272:64:64-i64:64-i128:128-f80:128-n8:16:32:64-S128"
target triple = "x86_64-pc-linux-gnu"

%class.btAlignedObjectArray.0 = type <{ [4 x i8], i32, i32, [4 x i8], ptr, i8, [7 x i8] }>
%class.btAlignedObjectArray.2 = type <{ [4 x i8], i32, i32, [4 x i8], ptr, i8, [7 x i8] }>
%"struct.btSimulationIslandManagerMt::SolverParams" = type { ptr, ptr, ptr, ptr, ptr }
%"struct.btSimulationIslandManagerMt::Island" = type <{ %class.btAlignedObjectArray.2, %class.btAlignedObjectArray.0, %class.btAlignedObjectArray.6, i32, i8, [3 x i8] }>
%class.btAlignedObjectArray.6 = type <{ [4 x i8], i32, i32, [4 x i8], ptr, i8, [7 x i8] }>

; Function Attrs: inlinehint mustprogress nounwind uwtable
define linkonce_odr dso_local noundef i32 @_ZNK20btAlignedObjectArrayIP17btCollisionObjectE4sizeEv(ptr noundef nonnull align 8 dereferenceable(25) %0) #4 comdat align 2 {
  %2 = alloca ptr, align 8
  store ptr %0, ptr %2, align 8, !tbaa !59
  %3 = load ptr, ptr %2, align 8
  %4 = getelementptr inbounds nuw %class.btAlignedObjectArray.2, ptr %3, i32 0, i32 1
  %5 = load i32, ptr %4, align 4, !tbaa !61
  ret i32 %5
}

; Function Attrs: inlinehint mustprogress nounwind uwtable
define linkonce_odr dso_local noundef nonnull align 8 dereferenceable(8) ptr @_ZN20btAlignedObjectArrayIP17btCollisionObjectEixEi(ptr noundef nonnull align 8 dereferenceable(25) %0, i32 noundef %1) #4 comdat align 2 {
  %3 = alloca ptr, align 8
  %4 = alloca i32, align 4
  store ptr %0, ptr %3, align 8, !tbaa !59
  store i32 %1, ptr %4, align 4, !tbaa !9
  %5 = load ptr, ptr %3, align 8
  %6 = getelementptr inbounds nuw %class.btAlignedObjectArray.2, ptr %5, i32 0, i32 4
  %7 = load ptr, ptr %6, align 8, !tbaa !63
  %8 = load i32, ptr %4, align 4, !tbaa !9
  %9 = sext i32 %8 to i64
  %10 = getelementptr inbounds ptr, ptr %7, i64 %9
  ret ptr %10
}

; Function Attrs: inlinehint mustprogress nounwind uwtable
define linkonce_odr dso_local noundef nonnull align 8 dereferenceable(8) ptr @_ZN20btAlignedObjectArrayIP17btTypedConstraintEixEi(ptr noundef nonnull align 8 dereferenceable(25) %0, i32 noundef %1) #4 comdat align 2 {
  %3 = alloca ptr, align 8
  %4 = alloca i32, align 4
  store ptr %0, ptr %3, align 8, !tbaa !73
  store i32 %1, ptr %4, align 4, !tbaa !9
  %5 = load ptr, ptr %3, align 8
  %6 = getelementptr inbounds nuw %class.btAlignedObjectArray.6, ptr %5, i32 0, i32 4
  %7 = load ptr, ptr %6, align 8, !tbaa !80
  %8 = load i32, ptr %4, align 4, !tbaa !9
  %9 = sext i32 %8 to i64
  %10 = getelementptr inbounds ptr, ptr %7, i64 %9
  ret ptr %10
}

; Function Attrs: inlinehint mustprogress nounwind uwtable
define linkonce_odr dso_local noundef i32 @_ZNK20btAlignedObjectArrayIP17btTypedConstraintE4sizeEv(ptr noundef nonnull align 8 dereferenceable(25) %0) #4 comdat align 2 {
  %2 = alloca ptr, align 8
  store ptr %0, ptr %2, align 8, !tbaa !73
  %3 = load ptr, ptr %2, align 8
  %4 = getelementptr inbounds nuw %class.btAlignedObjectArray.6, ptr %3, i32 0, i32 1
  %5 = load i32, ptr %4, align 4, !tbaa !75
  ret i32 %5
}

; Function Attrs: inlinehint mustprogress nounwind uwtable
define linkonce_odr dso_local noundef nonnull align 8 dereferenceable(8) ptr @_ZN20btAlignedObjectArrayIP20btPersistentManifoldEixEi(ptr noundef nonnull align 8 dereferenceable(25) %0, i32 noundef %1) #4 comdat align 2 {
  %3 = alloca ptr, align 8
  %4 = alloca i32, align 4
  store ptr %0, ptr %3, align 8, !tbaa !66
  store i32 %1, ptr %4, align 4, !tbaa !9
  %5 = load ptr, ptr %3, align 8
  %6 = getelementptr inbounds nuw %class.btAlignedObjectArray.0, ptr %5, i32 0, i32 4
  %7 = load ptr, ptr %6, align 8, !tbaa !70
  %8 = load i32, ptr %4, align 4, !tbaa !9
  %9 = sext i32 %8 to i64
  %10 = getelementptr inbounds ptr, ptr %7, i64 %9
  ret ptr %10
}

; Function Attrs: inlinehint mustprogress nounwind uwtable
define linkonce_odr dso_local noundef i32 @_ZNK20btAlignedObjectArrayIP20btPersistentManifoldE4sizeEv(ptr noundef nonnull align 8 dereferenceable(25) %0) #4 comdat align 2 {
  %2 = alloca ptr, align 8
  store ptr %0, ptr %2, align 8, !tbaa !66
  %3 = load ptr, ptr %2, align 8
  %4 = getelementptr inbounds nuw %class.btAlignedObjectArray.0, ptr %3, i32 0, i32 1
  %5 = load i32, ptr %4, align 4, !tbaa !68
  ret i32 %5
}

; Function Attrs: mustprogress uwtable
define dso_local void @_ZN27btSimulationIslandManagerMt11solveIslandEP18btConstraintSolverRNS_6IslandERKNS_12SolverParamsE(ptr noundef %0, ptr noundef nonnull align 8 dereferenceable(101) %1, ptr noundef nonnull align 8 dereferenceable(40) %2) #2 align 2 {
  %4 = alloca ptr, align 8
  %5 = alloca ptr, align 8
  %6 = alloca ptr, align 8
  %7 = alloca ptr, align 8
  %8 = alloca ptr, align 8
  store ptr %0, ptr %4, align 8, !tbaa !159
  store ptr %1, ptr %5, align 8, !tbaa !47
  store ptr %2, ptr %6, align 8, !tbaa !39
  call void @llvm.lifetime.start.p0(i64 8, ptr %7) #13
  %9 = load ptr, ptr %5, align 8, !tbaa !47
  %10 = getelementptr inbounds nuw %"struct.btSimulationIslandManagerMt::Island", ptr %9, i32 0, i32 1
  %11 = call noundef i32 @_ZNK20btAlignedObjectArrayIP20btPersistentManifoldE4sizeEv(ptr noundef nonnull align 8 dereferenceable(25) %10)
  %12 = icmp ne i32 %11, 0
  br i1 %12, label %13, label %17

13:                                               ; preds = %3
  %14 = load ptr, ptr %5, align 8, !tbaa !47
  %15 = getelementptr inbounds nuw %"struct.btSimulationIslandManagerMt::Island", ptr %14, i32 0, i32 1
  %16 = call noundef nonnull align 8 dereferenceable(8) ptr @_ZN20btAlignedObjectArrayIP20btPersistentManifoldEixEi(ptr noundef nonnull align 8 dereferenceable(25) %15, i32 noundef 0)
  br label %18

17:                                               ; preds = %3
  br label %18

18:                                               ; preds = %17, %13
  %19 = phi ptr [ %16, %13 ], [ null, %17 ]
  store ptr %19, ptr %7, align 8, !tbaa !69
  call void @llvm.lifetime.start.p0(i64 8, ptr %8) #13
  %20 = load ptr, ptr %5, align 8, !tbaa !47
  %21 = getelementptr inbounds nuw %"struct.btSimulationIslandManagerMt::Island", ptr %20, i32 0, i32 2
  %22 = call noundef i32 @_ZNK20btAlignedObjectArrayIP17btTypedConstraintE4sizeEv(ptr noundef nonnull align 8 dereferenceable(25) %21)
  %23 = icmp ne i32 %22, 0
  br i1 %23, label %24, label %28

24:                                               ; preds = %18
  %25 = load ptr, ptr %5, align 8, !tbaa !47
  %26 = getelementptr inbounds nuw %"struct.btSimulationIslandManagerMt::Island", ptr %25, i32 0, i32 2
  %27 = call noundef nonnull align 8 dereferenceable(8) ptr @_ZN20btAlignedObjectArrayIP17btTypedConstraintEixEi(ptr noundef nonnull align 8 dereferenceable(25) %26, i32 noundef 0)
  br label %29

28:                                               ; preds = %18
  br label %29

29:                                               ; preds = %28, %24
  %30 = phi ptr [ %27, %24 ], [ null, %28 ]
  store ptr %30, ptr %8, align 8, !tbaa !79
  %31 = load ptr, ptr %4, align 8, !tbaa !159
  %32 = load ptr, ptr %5, align 8, !tbaa !47
  %33 = getelementptr inbounds nuw %"struct.btSimulationIslandManagerMt::Island", ptr %32, i32 0, i32 0
  %34 = call noundef nonnull align 8 dereferenceable(8) ptr @_ZN20btAlignedObjectArrayIP17btCollisionObjectEixEi(ptr noundef nonnull align 8 dereferenceable(25) %33, i32 noundef 0)
  %35 = load ptr, ptr %5, align 8, !tbaa !47
  %36 = getelementptr inbounds nuw %"struct.btSimulationIslandManagerMt::Island", ptr %35, i32 0, i32 0
  %37 = call noundef i32 @_ZNK20btAlignedObjectArrayIP17btCollisionObjectE4sizeEv(ptr noundef nonnull align 8 dereferenceable(25) %36)
  %38 = load ptr, ptr %7, align 8, !tbaa !69
  %39 = load ptr, ptr %5, align 8, !tbaa !47
  %40 = getelementptr inbounds nuw %"struct.btSimulationIslandManagerMt::Island", ptr %39, i32 0, i32 1
  %41 = call noundef i32 @_ZNK20btAlignedObjectArrayIP20btPersistentManifoldE4sizeEv(ptr noundef nonnull align 8 dereferenceable(25) %40)
  %42 = load ptr, ptr %8, align 8, !tbaa !79
  %43 = load ptr, ptr %5, align 8, !tbaa !47
  %44 = getelementptr inbounds nuw %"struct.btSimulationIslandManagerMt::Island", ptr %43, i32 0, i32 2
  %45 = call noundef i32 @_ZNK20btAlignedObjectArrayIP17btTypedConstraintE4sizeEv(ptr noundef nonnull align 8 dereferenceable(25) %44)
  %46 = load ptr, ptr %6, align 8, !tbaa !39
  %47 = getelementptr inbounds nuw %"struct.btSimulationIslandManagerMt::SolverParams", ptr %46, i32 0, i32 2
  %48 = load ptr, ptr %47, align 8, !tbaa !160
  %49 = load ptr, ptr %6, align 8, !tbaa !39
  %50 = getelementptr inbounds nuw %"struct.btSimulationIslandManagerMt::SolverParams", ptr %49, i32 0, i32 3
  %51 = load ptr, ptr %50, align 8, !tbaa !161
  %52 = load ptr, ptr %6, align 8, !tbaa !39
  %53 = getelementptr inbounds nuw %"struct.btSimulationIslandManagerMt::SolverParams", ptr %52, i32 0, i32 4
  %54 = load ptr, ptr %53, align 8, !tbaa !162
  %55 = load ptr, ptr %31, align 8, !tbaa !14
  %56 = getelementptr inbounds ptr, ptr %55, i64 3
  %57 = load ptr, ptr %56, align 8
  %58 = call noundef float %57(ptr noundef nonnull align 8 dereferenceable(8) %31, ptr noundef %34, i32 noundef %37, ptr noundef %38, i32 noundef %41, ptr noundef %42, i32 noundef %45, ptr noundef nonnull align 4 dereferenceable(128) %48, ptr noundef %51, ptr noundef %54)
  call void @llvm.lifetime.end.p0(i64 8, ptr %8) #13
  call void @llvm.lifetime.end.p0(i64 8, ptr %7) #13
  ret void
}