; Function Attrs: mustprogress uwtable
define dso_local void @_ZN27btSimulationIslandManagerMt11solveIslandEP18btConstraintSolverRNS_6IslandERKNS_12SolverParamsE(ptr noundef %0, ptr noundef nonnull readonly align 8 captures(none) dereferenceable(101) %1, ptr noundef nonnull readonly align 8 captures(none) dereferenceable(40) %2) local_unnamed_addr #0 align 2 {
  %4 = getelementptr inbounds nuw i8, ptr %1, i64 36
  %5 = load i32, ptr %4, align 4, !tbaa !46
  %.not = icmp eq i32 %5, 0
  %6 = getelementptr inbounds nuw i8, ptr %1, i64 48
  %7 = load ptr, ptr %6, align 8
  %8 = select i1 %.not, ptr null, ptr %7
  %9 = getelementptr inbounds nuw i8, ptr %1, i64 68
  %10 = load i32, ptr %9, align 4, !tbaa !48
  %.not14 = icmp eq i32 %10, 0
  %11 = getelementptr inbounds nuw i8, ptr %1, i64 80
  %12 = load ptr, ptr %11, align 8
  %13 = select i1 %.not14, ptr null, ptr %12
  %14 = getelementptr inbounds nuw i8, ptr %1, i64 16
  %15 = load ptr, ptr %14, align 8, !tbaa !52
  %16 = getelementptr inbounds nuw i8, ptr %1, i64 4
  %17 = load i32, ptr %16, align 4, !tbaa !53
  %18 = getelementptr inbounds nuw i8, ptr %2, i64 16
  %19 = load ptr, ptr %18, align 8, !tbaa !54
  %20 = getelementptr inbounds nuw i8, ptr %2, i64 24
  %21 = load ptr, ptr %20, align 8, !tbaa !55
  %22 = getelementptr inbounds nuw i8, ptr %2, i64 32
  %23 = load ptr, ptr %22, align 8, !tbaa !56
  %24 = load ptr, ptr %0, align 8, !tbaa !4
  %25 = getelementptr inbounds nuw i8, ptr %24, i64 24
  %26 = load ptr, ptr %25, align 8
  %27 = tail call noundef float %26(ptr noundef nonnull align 8 dereferenceable(8) %0, ptr noundef nonnull %15, i32 noundef %17, ptr noundef %8, i32 noundef %5, ptr noundef %13, i32 noundef %10, ptr noundef nonnull align 4 dereferenceable(128) %19, ptr noundef %21, ptr noundef %23)
  ret void
}